; Function Attrs: mustprogress nounwind uwtable
define void @_ZN13IlmThread_3_29TaskGroupD2Ev(ptr nocapture noundef nonnull readonly align 8 dereferenceable(8) %this) unnamed_addr #2 align 2 personality ptr @__gxx_personality_v0 {
entry:
  %0 = load ptr, ptr %this, align 8
  %isEmpty.i = getelementptr inbounds i8, ptr %0, i64 8
  invoke void @_ZN13IlmThread_3_29Semaphore4waitEv(ptr noundef nonnull align 8 dereferenceable(40) %isEmpty.i)
          to label %.noexc unwind label %terminate.lpad

.noexc:                                           ; preds = %entry
  %inFlight.i = getelementptr inbounds i8, ptr %0, i64 4
  %1 = load atomic i32, ptr %inFlight.i seq_cst, align 4
  %cmp3.i = icmp sgt i32 %1, 0
  br i1 %cmp3.i, label %while.body.i, label %invoke.cont

while.body.i:                                     ; preds = %.noexc, %if.end.i
  %count.04.i = phi i32 [ %count.1.i, %if.end.i ], [ 0, %.noexc ]
  %inc.i = add nsw i32 %count.04.i, 1
  %cmp2.i = icmp sgt i32 %count.04.i, 99
  br i1 %cmp2.i, label %if.then.i, label %if.end.i

if.then.i:                                        ; preds = %while.body.i
  %call.i.i.i = tail call noundef i32 @sched_yield() #23
  br label %if.end.i

if.end.i:                                         ; preds = %if.then.i, %while.body.i
  %count.1.i = phi i32 [ 0, %if.then.i ], [ %inc.i, %while.body.i ]
  %2 = load atomic i32, ptr %inFlight.i seq_cst, align 4
  %cmp.i = icmp sgt i32 %2, 0
  br i1 %cmp.i, label %while.body.i, label %invoke.cont, !llvm.loop !4

invoke.cont:                                      ; preds = %if.end.i, %.noexc
  %3 = load ptr, ptr %this, align 8
  %isnull = icmp eq ptr %3, null
  br i1 %isnull, label %delete.end, label %delete.notnull

delete.notnull:                                   ; preds = %invoke.cont
  %isEmpty.i1 = getelementptr inbounds i8, ptr %3, i64 8
  tail call void @_ZN13IlmThread_3_29SemaphoreD1Ev(ptr noundef nonnull align 8 dereferenceable(40) %isEmpty.i1) #23
  tail call void @_ZdlPv(ptr noundef nonnull %3) #26
  br label %delete.end

delete.end:                                       ; preds = %delete.notnull, %invoke.cont
  ret void

terminate.lpad:                                   ; preds = %entry
  %4 = landingpad { ptr, i32 }
          catch ptr null
  %5 = extractvalue { ptr, i32 } %4, 0
  tail call void @__clang_call_terminate(ptr %5) #24
  unreachable
}